target datalayout = "e-m:e-p270:32:32-p271:32:32-p272:64:64-i64:64-i128:128-f80:128-n8:16:32:64-S128"
target triple = "x86_64-pc-linux-gnu"

%"class.std::__cxx11::basic_string" = type { %"struct.std::__cxx11::basic_string<char>::_Alloc_hider", i64, %union.anon }
%"struct.std::__cxx11::basic_string<char>::_Alloc_hider" = type { ptr }
%union.anon = type { i64, [8 x i8] }
%"class.testing::internal::Mutex" = type { %"class.testing::internal::MutexBase" }
%"class.testing::internal::MutexBase" = type { %union.pthread_mutex_t, i8, i64 }
%union.pthread_mutex_t = type { %struct.__pthread_mutex_s }
%struct.__pthread_mutex_s = type { i32, i32, i32, i32, i32, i16, i16, %struct.__pthread_internal_list }
%struct.__pthread_internal_list = type { ptr, ptr }
%"class.testing::internal::UnitTestImpl" = type <{ ptr, ptr, %"class.testing::internal::FilePath", %"class.testing::internal::DefaultGlobalTestPartResultReporter", %"class.testing::internal::DefaultPerThreadTestPartResultReporter", ptr, %"class.testing::internal::Mutex", %"class.testing::internal::ThreadLocal", %"class.std::vector", %"class.std::vector.21", %"class.std::vector.26", %"class.testing::internal::ParameterizedTestSuiteRegistry", %"class.testing::internal::TypeParameterizedTestSuiteRegistry", %"class.std::set", i8, [3 x i8], i32, ptr, ptr, %"class.testing::TestResult", %"class.testing::TestEventListeners", ptr, i8, [3 x i8], i32, %"class.testing::internal::Random", [4 x i8], i64, i64, %"class.std::unique_ptr.53", %"class.std::unique_ptr.61", %"class.testing::internal::ThreadLocal.69", i8, [7 x i8] }>
%"class.testing::internal::FilePath" = type { %"class.std::__cxx11::basic_string" }
%"class.testing::internal::DefaultGlobalTestPartResultReporter" = type { %"class.testing::TestPartResultReporterInterface", ptr }
%"class.testing::TestPartResultReporterInterface" = type { ptr }
%"class.testing::internal::DefaultPerThreadTestPartResultReporter" = type { %"class.testing::TestPartResultReporterInterface", ptr }
%"class.testing::internal::ThreadLocal" = type { i32, %"class.std::unique_ptr.10" }
%"class.std::unique_ptr.10" = type { %"struct.std::__uniq_ptr_data.11" }
%"struct.std::__uniq_ptr_data.11" = type { %"class.std::__uniq_ptr_impl.12" }
%"class.std::__uniq_ptr_impl.12" = type { %"class.std::tuple.13" }
%"class.std::tuple.13" = type { %"struct.std::_Tuple_impl.14" }
%"struct.std::_Tuple_impl.14" = type { %"struct.std::_Head_base.17" }
%"struct.std::_Head_base.17" = type { ptr }
%"class.std::vector" = type { %"struct.std::_Vector_base" }
%"struct.std::_Vector_base" = type { %"struct.std::_Vector_base<testing::Environment *, std::allocator<testing::Environment *>>::_Vector_impl" }
%"struct.std::_Vector_base<testing::Environment *, std::allocator<testing::Environment *>>::_Vector_impl" = type { %"struct.std::_Vector_base<testing::Environment *, std::allocator<testing::Environment *>>::_Vector_impl_data" }
%"struct.std::_Vector_base<testing::Environment *, std::allocator<testing::Environment *>>::_Vector_impl_data" = type { ptr, ptr, ptr }
%"class.std::vector.21" = type { %"struct.std::_Vector_base.22" }
%"struct.std::_Vector_base.22" = type { %"struct.std::_Vector_base<testing::TestSuite *, std::allocator<testing::TestSuite *>>::_Vector_impl" }
%"struct.std::_Vector_base<testing::TestSuite *, std::allocator<testing::TestSuite *>>::_Vector_impl" = type { %"struct.std::_Vector_base<testing::TestSuite *, std::allocator<testing::TestSuite *>>::_Vector_impl_data" }
%"struct.std::_Vector_base<testing::TestSuite *, std::allocator<testing::TestSuite *>>::_Vector_impl_data" = type { ptr, ptr, ptr }
%"class.std::vector.26" = type { %"struct.std::_Vector_base.27" }
%"struct.std::_Vector_base.27" = type { %"struct.std::_Vector_base<int, std::allocator<int>>::_Vector_impl" }
%"struct.std::_Vector_base<int, std::allocator<int>>::_Vector_impl" = type { %"struct.std::_Vector_base<int, std::allocator<int>>::_Vector_impl_data" }
%"struct.std::_Vector_base<int, std::allocator<int>>::_Vector_impl_data" = type { ptr, ptr, ptr }
%"class.testing::internal::ParameterizedTestSuiteRegistry" = type { %"class.std::vector.31" }
%"class.std::vector.31" = type { %"struct.std::_Vector_base.32" }
%"struct.std::_Vector_base.32" = type { %"struct.std::_Vector_base<testing::internal::ParameterizedTestSuiteInfoBase *, std::allocator<testing::internal::ParameterizedTestSuiteInfoBase *>>::_Vector_impl" }
%"struct.std::_Vector_base<testing::internal::ParameterizedTestSuiteInfoBase *, std::allocator<testing::internal::ParameterizedTestSuiteInfoBase *>>::_Vector_impl" = type { %"struct.std::_Vector_base<testing::internal::ParameterizedTestSuiteInfoBase *, std::allocator<testing::internal::ParameterizedTestSuiteInfoBase *>>::_Vector_impl_data" }
%"struct.std::_Vector_base<testing::internal::ParameterizedTestSuiteInfoBase *, std::allocator<testing::internal::ParameterizedTestSuiteInfoBase *>>::_Vector_impl_data" = type { ptr, ptr, ptr }
%"class.testing::internal::TypeParameterizedTestSuiteRegistry" = type { %"class.std::map" }
%"class.std::map" = type { %"class.std::_Rb_tree" }
%"class.std::_Rb_tree" = type { %"struct.std::_Rb_tree<std::__cxx11::basic_string<char>, std::pair<const std::__cxx11::basic_string<char>, testing::internal::TypeParameterizedTestSuiteRegistry::TypeParameterizedTestSuiteInfo>, std::_Select1st<std::pair<const std::__cxx11::basic_string<char>, testing::internal::TypeParameterizedTestSuiteRegistry::TypeParameterizedTestSuiteInfo>>, std::less<std::__cxx11::basic_string<char>>>::_Rb_tree_impl" }
%"struct.std::_Rb_tree<std::__cxx11::basic_string<char>, std::pair<const std::__cxx11::basic_string<char>, testing::internal::TypeParameterizedTestSuiteRegistry::TypeParameterizedTestSuiteInfo>, std::_Select1st<std::pair<const std::__cxx11::basic_string<char>, testing::internal::TypeParameterizedTestSuiteRegistry::TypeParameterizedTestSuiteInfo>>, std::less<std::__cxx11::basic_string<char>>>::_Rb_tree_impl" = type { [8 x i8], %"struct.std::_Rb_tree_header" }
%"struct.std::_Rb_tree_header" = type { %"struct.std::_Rb_tree_node_base", i64 }
%"struct.std::_Rb_tree_node_base" = type { i32, ptr, ptr, ptr }
%"class.std::set" = type { %"class.std::_Rb_tree.39" }
%"class.std::_Rb_tree.39" = type { %"struct.std::_Rb_tree<std::__cxx11::basic_string<char>, std::__cxx11::basic_string<char>, std::_Identity<std::__cxx11::basic_string<char>>, std::less<std::__cxx11::basic_string<char>>>::_Rb_tree_impl" }
%"struct.std::_Rb_tree<std::__cxx11::basic_string<char>, std::__cxx11::basic_string<char>, std::_Identity<std::__cxx11::basic_string<char>>, std::less<std::__cxx11::basic_string<char>>>::_Rb_tree_impl" = type { [8 x i8], %"struct.std::_Rb_tree_header" }
%"class.testing::TestResult" = type { %"class.testing::internal::Mutex", %"class.std::vector.43", %"class.std::vector.48", i32, i64, i64 }
%"class.std::vector.43" = type { %"struct.std::_Vector_base.44" }
%"struct.std::_Vector_base.44" = type { %"struct.std::_Vector_base<testing::TestPartResult, std::allocator<testing::TestPartResult>>::_Vector_impl" }
%"struct.std::_Vector_base<testing::TestPartResult, std::allocator<testing::TestPartResult>>::_Vector_impl" = type { %"struct.std::_Vector_base<testing::TestPartResult, std::allocator<testing::TestPartResult>>::_Vector_impl_data" }
%"struct.std::_Vector_base<testing::TestPartResult, std::allocator<testing::TestPartResult>>::_Vector_impl_data" = type { ptr, ptr, ptr }
%"class.std::vector.48" = type { %"struct.std::_Vector_base.49" }
%"struct.std::_Vector_base.49" = type { %"struct.std::_Vector_base<testing::TestProperty, std::allocator<testing::TestProperty>>::_Vector_impl" }
%"struct.std::_Vector_base<testing::TestProperty, std::allocator<testing::TestProperty>>::_Vector_impl" = type { %"struct.std::_Vector_base<testing::TestProperty, std::allocator<testing::TestProperty>>::_Vector_impl_data" }
%"struct.std::_Vector_base<testing::TestProperty, std::allocator<testing::TestProperty>>::_Vector_impl_data" = type { ptr, ptr, ptr }
%"class.testing::TestEventListeners" = type { ptr, ptr, ptr }
%"class.testing::internal::Random" = type { i32 }
%"class.std::unique_ptr.53" = type { %"struct.std::__uniq_ptr_data.54" }
%"struct.std::__uniq_ptr_data.54" = type { %"class.std::__uniq_ptr_impl.55" }
%"class.std::__uniq_ptr_impl.55" = type { %"class.std::tuple.56" }
%"class.std::tuple.56" = type { %"struct.std::_Tuple_impl.57" }
%"struct.std::_Tuple_impl.57" = type { %"struct.std::_Head_base.60" }
%"struct.std::_Head_base.60" = type { ptr }
%"class.std::unique_ptr.61" = type { %"struct.std::__uniq_ptr_data.62" }
%"struct.std::__uniq_ptr_data.62" = type { %"class.std::__uniq_ptr_impl.63" }
%"class.std::__uniq_ptr_impl.63" = type { %"class.std::tuple.64" }
%"class.std::tuple.64" = type { %"struct.std::_Tuple_impl.65" }
%"struct.std::_Tuple_impl.65" = type { %"struct.std::_Head_base.68" }
%"struct.std::_Head_base.68" = type { ptr }
%"class.testing::internal::ThreadLocal.69" = type { i32, %"class.std::unique_ptr.70" }
%"class.std::unique_ptr.70" = type { %"struct.std::__uniq_ptr_data.71" }
%"struct.std::__uniq_ptr_data.71" = type { %"class.std::__uniq_ptr_impl.72" }
%"class.std::__uniq_ptr_impl.72" = type { %"class.std::tuple.73" }
%"class.std::tuple.73" = type { %"struct.std::_Tuple_impl.74" }
%"struct.std::_Tuple_impl.74" = type { %"struct.std::_Head_base.77" }
%"struct.std::_Head_base.77" = type { ptr }
%"class.std::unique_ptr.78" = type { %"struct.std::__uniq_ptr_data.79" }
%"struct.std::__uniq_ptr_data.79" = type { %"class.std::__uniq_ptr_impl.80" }
%"class.std::__uniq_ptr_impl.80" = type { %"class.std::tuple.81" }
%"class.std::tuple.81" = type { %"struct.std::_Tuple_impl.82" }
%"struct.std::_Tuple_impl.82" = type { %"struct.std::_Head_base.85" }
%"struct.std::_Head_base.85" = type { ptr }
%"class.testing::TestSuite" = type { ptr, %"class.std::__cxx11::basic_string", %"class.std::unique_ptr.78", %"class.std::vector.185", %"class.std::vector.26", ptr, ptr, i8, i64, i64, %"class.testing::TestResult" }
%"class.std::vector.185" = type { %"struct.std::_Vector_base.186" }
%"struct.std::_Vector_base.186" = type { %"struct.std::_Vector_base<testing::TestInfo *, std::allocator<testing::TestInfo *>>::_Vector_impl" }
%"struct.std::_Vector_base<testing::TestInfo *, std::allocator<testing::TestInfo *>>::_Vector_impl" = type { %"struct.std::_Vector_base<testing::TestInfo *, std::allocator<testing::TestInfo *>>::_Vector_impl_data" }
%"struct.std::_Vector_base<testing::TestInfo *, std::allocator<testing::TestInfo *>>::_Vector_impl_data" = type { ptr, ptr, ptr }
%"class.__gnu_cxx::__normal_iterator.213" = type { ptr }

; Function Attrs: mustprogress nounwind uwtable
define linkonce_odr noundef i64 @_ZNKSt6vectorIiSaIiEE4sizeEv(ptr noundef nonnull align 8 dereferenceable(24) %0) #5 comdat align 2 {
  %2 = alloca ptr, align 8
  store ptr %0, ptr %2, align 8, !tbaa !714
  %3 = load ptr, ptr %2, align 8
  %4 = getelementptr inbounds nuw %"struct.std::_Vector_base.27", ptr %3, i32 0, i32 0
  %5 = getelementptr inbounds nuw %"struct.std::_Vector_base<int, std::allocator<int>>::_Vector_impl_data", ptr %4, i32 0, i32 1
  %6 = load ptr, ptr %5, align 8, !tbaa !717
  %7 = getelementptr inbounds nuw %"struct.std::_Vector_base.27", ptr %3, i32 0, i32 0
  %8 = getelementptr inbounds nuw %"struct.std::_Vector_base<int, std::allocator<int>>::_Vector_impl_data", ptr %7, i32 0, i32 0
  %9 = load ptr, ptr %8, align 8, !tbaa !716
  %10 = ptrtoint ptr %6 to i64
  %11 = ptrtoint ptr %9 to i64
  %12 = sub i64 %10, %11
  %13 = sdiv exact i64 %12, 4
  ret i64 %13
}

; Function Attrs: inlinehint mustprogress uwtable
define linkonce_odr void @_ZN7testing8internal7ShuffleIiEEvPNS0_6RandomEPSt6vectorIT_SaIS5_EE(ptr noundef %0, ptr noundef %1) #11 comdat {
  %3 = alloca ptr, align 8
  %4 = alloca ptr, align 8
  store ptr %0, ptr %3, align 8, !tbaa !426
  store ptr %1, ptr %4, align 8, !tbaa !714
  %5 = load ptr, ptr %3, align 8, !tbaa !426
  %6 = load ptr, ptr %4, align 8, !tbaa !714
  %7 = call noundef i64 @_ZNKSt6vectorIiSaIiEE4sizeEv(ptr noundef nonnull align 8 dereferenceable(24) %6) #3
  %8 = trunc i64 %7 to i32
  %9 = load ptr, ptr %4, align 8, !tbaa !714
  call void @_ZN7testing8internal12ShuffleRangeIiEEvPNS0_6RandomEiiPSt6vectorIT_SaIS5_EE(ptr noundef %5, i32 noundef 0, i32 noundef %8, ptr noundef %9)
  ret void
}

; Function Attrs: mustprogress nounwind uwtable
define linkonce_odr noundef nonnull align 8 dereferenceable(8) ptr @_ZNK9__gnu_cxx17__normal_iteratorIPPN7testing9TestSuiteESt6vectorIS3_SaIS3_EEE4baseEv(ptr noundef nonnull align 8 dereferenceable(8) %0) #5 comdat align 2 {
  %2 = alloca ptr, align 8
  store ptr %0, ptr %2, align 8, !tbaa !877
  %3 = load ptr, ptr %2, align 8
  %4 = getelementptr inbounds nuw %"class.__gnu_cxx::__normal_iterator.213", ptr %3, i32 0, i32 0
  ret ptr %4
}

; Function Attrs: mustprogress nounwind uwtable
define linkonce_odr void @_ZN9__gnu_cxx17__normal_iteratorIPPN7testing9TestSuiteESt6vectorIS3_SaIS3_EEEC2ERKS4_(ptr noundef nonnull align 8 dereferenceable(8) %0, ptr noundef nonnull align 8 dereferenceable(8) %1) unnamed_addr #5 comdat align 2 {
  %3 = alloca ptr, align 8
  %4 = alloca ptr, align 8
  store ptr %0, ptr %3, align 8, !tbaa !877
  store ptr %1, ptr %4, align 8, !tbaa !1836
  %5 = load ptr, ptr %3, align 8
  %6 = getelementptr inbounds nuw %"class.__gnu_cxx::__normal_iterator.213", ptr %5, i32 0, i32 0
  %7 = load ptr, ptr %4, align 8, !tbaa !1836
  %8 = load ptr, ptr %7, align 8, !tbaa !796
  store ptr %8, ptr %6, align 8, !tbaa !879
  ret void
}

; Function Attrs: mustprogress nounwind uwtable
define linkonce_odr noundef nonnull align 8 dereferenceable(8) ptr @_ZN9__gnu_cxx17__normal_iteratorIPPN7testing9TestSuiteESt6vectorIS3_SaIS3_EEEppEv(ptr noundef nonnull align 8 dereferenceable(8) %0) #5 comdat align 2 {
  %2 = alloca ptr, align 8
  store ptr %0, ptr %2, align 8, !tbaa !877
  %3 = load ptr, ptr %2, align 8
  %4 = getelementptr inbounds nuw %"class.__gnu_cxx::__normal_iterator.213", ptr %3, i32 0, i32 0
  %5 = load ptr, ptr %4, align 8, !tbaa !879
  %6 = getelementptr inbounds nuw ptr, ptr %5, i32 1
  store ptr %6, ptr %4, align 8, !tbaa !879
  ret ptr %3
}

; Function Attrs: mustprogress uwtable
define void @_ZN7testing9TestSuite12ShuffleTestsEPNS_8internal6RandomE(ptr noundef nonnull align 8 dereferenceable(264) %0, ptr noundef %1) #4 align 2 {
  %3 = alloca ptr, align 8
  %4 = alloca ptr, align 8
  store ptr %0, ptr %3, align 8, !tbaa !507
  store ptr %1, ptr %4, align 8, !tbaa !426
  %5 = load ptr, ptr %3, align 8
  %6 = load ptr, ptr %4, align 8, !tbaa !426
  %7 = getelementptr inbounds nuw %"class.testing::TestSuite", ptr %5, i32 0, i32 4
  call void @_ZN7testing8internal7ShuffleIiEEvPNS0_6RandomEPSt6vectorIT_SaIS5_EE(ptr noundef %6, ptr noundef %7)
  ret void
}

; Function Attrs: mustprogress nounwind uwtable
define linkonce_odr noundef nonnull align 8 dereferenceable(8) ptr @_ZNK9__gnu_cxx17__normal_iteratorIPPN7testing9TestSuiteESt6vectorIS3_SaIS3_EEEdeEv(ptr noundef nonnull align 8 dereferenceable(8) %0) #5 comdat align 2 {
  %2 = alloca ptr, align 8
  store ptr %0, ptr %2, align 8, !tbaa !877
  %3 = load ptr, ptr %2, align 8
  %4 = getelementptr inbounds nuw %"class.__gnu_cxx::__normal_iterator.213", ptr %3, i32 0, i32 0
  %5 = load ptr, ptr %4, align 8, !tbaa !879
  ret ptr %5
}

; Function Attrs: inlinehint mustprogress nounwind uwtable
define linkonce_odr noundef zeroext i1 @_ZN9__gnu_cxxneIPPN7testing9TestSuiteESt6vectorIS3_SaIS3_EEEEbRKNS_17__normal_iteratorIT_T0_EESD_(ptr noundef nonnull align 8 dereferenceable(8) %0, ptr noundef nonnull align 8 dereferenceable(8) %1) #8 comdat {
  %3 = alloca ptr, align 8
  %4 = alloca ptr, align 8
  store ptr %0, ptr %3, align 8, !tbaa !877
  store ptr %1, ptr %4, align 8, !tbaa !877
  %5 = load ptr, ptr %3, align 8, !tbaa !877
  %6 = call noundef nonnull align 8 dereferenceable(8) ptr @_ZNK9__gnu_cxx17__normal_iteratorIPPN7testing9TestSuiteESt6vectorIS3_SaIS3_EEE4baseEv(ptr noundef nonnull align 8 dereferenceable(8) %5) #3
  %7 = load ptr, ptr %6, align 8, !tbaa !796
  %8 = load ptr, ptr %4, align 8, !tbaa !877
  %9 = call noundef nonnull align 8 dereferenceable(8) ptr @_ZNK9__gnu_cxx17__normal_iteratorIPPN7testing9TestSuiteESt6vectorIS3_SaIS3_EEE4baseEv(ptr noundef nonnull align 8 dereferenceable(8) %8) #3
  %10 = load ptr, ptr %9, align 8, !tbaa !796
  %11 = icmp ne ptr %7, %10
  ret i1 %11
}

; Function Attrs: mustprogress nounwind uwtable
define linkonce_odr ptr @_ZNSt6vectorIPN7testing9TestSuiteESaIS2_EE3endEv(ptr noundef nonnull align 8 dereferenceable(24) %0) #5 comdat align 2 {
  %2 = alloca %"class.__gnu_cxx::__normal_iterator.213", align 8
  %3 = alloca ptr, align 8
  store ptr %0, ptr %3, align 8, !tbaa !505
  %4 = load ptr, ptr %3, align 8
  %5 = getelementptr inbounds nuw %"struct.std::_Vector_base.22", ptr %4, i32 0, i32 0
  %6 = getelementptr inbounds nuw %"struct.std::_Vector_base<testing::TestSuite *, std::allocator<testing::TestSuite *>>::_Vector_impl_data", ptr %5, i32 0, i32 1
  call void @_ZN9__gnu_cxx17__normal_iteratorIPPN7testing9TestSuiteESt6vectorIS3_SaIS3_EEEC2ERKS4_(ptr noundef nonnull align 8 dereferenceable(8) %2, ptr noundef nonnull align 8 dereferenceable(8) %6) #3
  %7 = getelementptr inbounds nuw %"class.__gnu_cxx::__normal_iterator.213", ptr %2, i32 0, i32 0
  %8 = load ptr, ptr %7, align 8
  ret ptr %8
}

; Function Attrs: mustprogress nounwind uwtable
define linkonce_odr ptr @_ZNSt6vectorIPN7testing9TestSuiteESaIS2_EE5beginEv(ptr noundef nonnull align 8 dereferenceable(24) %0) #5 comdat align 2 {
  %2 = alloca %"class.__gnu_cxx::__normal_iterator.213", align 8
  %3 = alloca ptr, align 8
  store ptr %0, ptr %3, align 8, !tbaa !505
  %4 = load ptr, ptr %3, align 8
  %5 = getelementptr inbounds nuw %"struct.std::_Vector_base.22", ptr %4, i32 0, i32 0
  %6 = getelementptr inbounds nuw %"struct.std::_Vector_base<testing::TestSuite *, std::allocator<testing::TestSuite *>>::_Vector_impl_data", ptr %5, i32 0, i32 0
  call void @_ZN9__gnu_cxx17__normal_iteratorIPPN7testing9TestSuiteESt6vectorIS3_SaIS3_EEEC2ERKS4_(ptr noundef nonnull align 8 dereferenceable(8) %2, ptr noundef nonnull align 8 dereferenceable(8) %6) #3
  %7 = getelementptr inbounds nuw %"class.__gnu_cxx::__normal_iterator.213", ptr %2, i32 0, i32 0
  %8 = load ptr, ptr %7, align 8
  ret ptr %8
}

; Function Attrs: mustprogress nounwind uwtable
define linkonce_odr noundef i64 @_ZNKSt6vectorIPN7testing9TestSuiteESaIS2_EE4sizeEv(ptr noundef nonnull align 8 dereferenceable(24) %0) #5 comdat align 2 {
  %2 = alloca ptr, align 8
  store ptr %0, ptr %2, align 8, !tbaa !505
  %3 = load ptr, ptr %2, align 8
  %4 = getelementptr inbounds nuw %"struct.std::_Vector_base.22", ptr %3, i32 0, i32 0
  %5 = getelementptr inbounds nuw %"struct.std::_Vector_base<testing::TestSuite *, std::allocator<testing::TestSuite *>>::_Vector_impl_data", ptr %4, i32 0, i32 1
  %6 = load ptr, ptr %5, align 8, !tbaa !509
  %7 = getelementptr inbounds nuw %"struct.std::_Vector_base.22", ptr %3, i32 0, i32 0
  %8 = getelementptr inbounds nuw %"struct.std::_Vector_base<testing::TestSuite *, std::allocator<testing::TestSuite *>>::_Vector_impl_data", ptr %7, i32 0, i32 0
  %9 = load ptr, ptr %8, align 8, !tbaa !510
  %10 = ptrtoint ptr %6 to i64
  %11 = ptrtoint ptr %9 to i64
  %12 = sub i64 %10, %11
  %13 = sdiv exact i64 %12, 8
  ret i64 %13
}

; Function Attrs: mustprogress nounwind uwtable
define linkonce_odr noundef ptr @_ZN7testing8internal12UnitTestImpl6randomEv(ptr noundef nonnull align 8 dereferenceable(601) %0) #5 comdat align 2 {
  %2 = alloca ptr, align 8
  store ptr %0, ptr %2, align 8, !tbaa !51
  %3 = load ptr, ptr %2, align 8
  %4 = getelementptr inbounds nuw %"class.testing::internal::UnitTestImpl", ptr %3, i32 0, i32 25
  ret ptr %4
}

; Function Attrs: mustprogress uwtable
define void @_ZN7testing8internal12UnitTestImpl12ShuffleTestsEv(ptr noundef nonnull align 8 dereferenceable(601) %0) #4 align 2 {
  %2 = alloca ptr, align 8
  %3 = alloca ptr, align 8
  %4 = alloca %"class.__gnu_cxx::__normal_iterator.213", align 8
  %5 = alloca %"class.__gnu_cxx::__normal_iterator.213", align 8
  %6 = alloca ptr, align 8
  store ptr %0, ptr %2, align 8, !tbaa !51
  %7 = load ptr, ptr %2, align 8
  %8 = call noundef ptr @_ZN7testing8internal12UnitTestImpl6randomEv(ptr noundef nonnull align 8 dereferenceable(601) %7)
  %9 = getelementptr inbounds nuw %"class.testing::internal::UnitTestImpl", ptr %7, i32 0, i32 16
  %10 = load i32, ptr %9, align 4, !tbaa !853
  %11 = add nsw i32 %10, 1
  %12 = getelementptr inbounds nuw %"class.testing::internal::UnitTestImpl", ptr %7, i32 0, i32 10
  call void @_ZN7testing8internal12ShuffleRangeIiEEvPNS0_6RandomEiiPSt6vectorIT_SaIS5_EE(ptr noundef %8, i32 noundef 0, i32 noundef %11, ptr noundef %12)
  %13 = call noundef ptr @_ZN7testing8internal12UnitTestImpl6randomEv(ptr noundef nonnull align 8 dereferenceable(601) %7)
  %14 = getelementptr inbounds nuw %"class.testing::internal::UnitTestImpl", ptr %7, i32 0, i32 16
  %15 = load i32, ptr %14, align 4, !tbaa !853
  %16 = add nsw i32 %15, 1
  %17 = getelementptr inbounds nuw %"class.testing::internal::UnitTestImpl", ptr %7, i32 0, i32 9
  %18 = call noundef i64 @_ZNKSt6vectorIPN7testing9TestSuiteESaIS2_EE4sizeEv(ptr noundef nonnull align 8 dereferenceable(24) %17) #3
  %19 = trunc i64 %18 to i32
  %20 = getelementptr inbounds nuw %"class.testing::internal::UnitTestImpl", ptr %7, i32 0, i32 10
  call void @_ZN7testing8internal12ShuffleRangeIiEEvPNS0_6RandomEiiPSt6vectorIT_SaIS5_EE(ptr noundef %13, i32 noundef %16, i32 noundef %19, ptr noundef %20)
  call void @llvm.lifetime.start.p0(i64 8, ptr %3) #3
  %21 = getelementptr inbounds nuw %"class.testing::internal::UnitTestImpl", ptr %7, i32 0, i32 9
  store ptr %21, ptr %3, align 8, !tbaa !505
  call void @llvm.lifetime.start.p0(i64 8, ptr %4) #3
  %22 = load ptr, ptr %3, align 8, !tbaa !505
  %23 = call ptr @_ZNSt6vectorIPN7testing9TestSuiteESaIS2_EE5beginEv(ptr noundef nonnull align 8 dereferenceable(24) %22) #3
  %24 = getelementptr inbounds nuw %"class.__gnu_cxx::__normal_iterator.213", ptr %4, i32 0, i32 0
  store ptr %23, ptr %24, align 8
  call void @llvm.lifetime.start.p0(i64 8, ptr %5) #3
  %25 = load ptr, ptr %3, align 8, !tbaa !505
  %26 = call ptr @_ZNSt6vectorIPN7testing9TestSuiteESaIS2_EE3endEv(ptr noundef nonnull align 8 dereferenceable(24) %25) #3
  %27 = getelementptr inbounds nuw %"class.__gnu_cxx::__normal_iterator.213", ptr %5, i32 0, i32 0
  store ptr %26, ptr %27, align 8
  br label %28

28:                                               ; preds = %36, %1
  %29 = call noundef zeroext i1 @_ZN9__gnu_cxxneIPPN7testing9TestSuiteESt6vectorIS3_SaIS3_EEEEbRKNS_17__normal_iteratorIT_T0_EESD_(ptr noundef nonnull align 8 dereferenceable(8) %4, ptr noundef nonnull align 8 dereferenceable(8) %5) #3
  br i1 %29, label %31, label %30

30:                                               ; preds = %28
  call void @llvm.lifetime.end.p0(i64 8, ptr %5) #3
  call void @llvm.lifetime.end.p0(i64 8, ptr %4) #3
  call void @llvm.lifetime.end.p0(i64 8, ptr %3) #3
  br label %38

31:                                               ; preds = %28
  call void @llvm.lifetime.start.p0(i64 8, ptr %6) #3
  %32 = call noundef nonnull align 8 dereferenceable(8) ptr @_ZNK9__gnu_cxx17__normal_iteratorIPPN7testing9TestSuiteESt6vectorIS3_SaIS3_EEEdeEv(ptr noundef nonnull align 8 dereferenceable(8) %4) #3
  store ptr %32, ptr %6, align 8, !tbaa !796
  %33 = load ptr, ptr %6, align 8, !tbaa !796
  %34 = load ptr, ptr %33, align 8, !tbaa !507
  %35 = call noundef ptr @_ZN7testing8internal12UnitTestImpl6randomEv(ptr noundef nonnull align 8 dereferenceable(601) %7)
  call void @_ZN7testing9TestSuite12ShuffleTestsEPNS_8internal6RandomE(ptr noundef nonnull align 8 dereferenceable(264) %34, ptr noundef %35)
  call void @llvm.lifetime.end.p0(i64 8, ptr %6) #3
  br label %36

36:                                               ; preds = %31
  %37 = call noundef nonnull align 8 dereferenceable(8) ptr @_ZN9__gnu_cxx17__normal_iteratorIPPN7testing9TestSuiteESt6vectorIS3_SaIS3_EEEppEv(ptr noundef nonnull align 8 dereferenceable(8) %4) #3
  br label %28

38:                                               ; preds = %30
  ret void
}