; Function Attrs: mustprogress uwtable
define void @_ZN7testing8internal12UnitTestImpl12ShuffleTestsEv(ptr noundef nonnull align 8 dereferenceable(601) %0) local_unnamed_addr #3 align 2 {
  %2 = getelementptr inbounds nuw i8, ptr %0, i64 544
  %3 = getelementptr inbounds nuw i8, ptr %0, i64 356
  %4 = load i32, ptr %3, align 4, !tbaa !1881
  %5 = add nsw i32 %4, 1
  %6 = getelementptr inbounds nuw i8, ptr %0, i64 208
  tail call void @_ZN7testing8internal12ShuffleRangeIiEEvPNS0_6RandomEiiPSt6vectorIT_SaIS5_EE(ptr noundef nonnull %2, i32 noundef 0, i32 noundef %5, ptr noundef nonnull %6)
  %7 = load i32, ptr %3, align 4, !tbaa !1881
  %8 = add nsw i32 %7, 1
  %9 = getelementptr inbounds nuw i8, ptr %0, i64 184
  %10 = getelementptr inbounds nuw i8, ptr %0, i64 192
  %11 = load ptr, ptr %10, align 8, !tbaa !1128
  %12 = load ptr, ptr %9, align 8, !tbaa !1129
  %13 = ptrtoint ptr %11 to i64
  %14 = ptrtoint ptr %12 to i64
  %15 = sub i64 %13, %14
  %16 = lshr exact i64 %15, 3
  %17 = trunc i64 %16 to i32
  tail call void @_ZN7testing8internal12ShuffleRangeIiEEvPNS0_6RandomEiiPSt6vectorIT_SaIS5_EE(ptr noundef nonnull %2, i32 noundef %8, i32 noundef %17, ptr noundef nonnull %6)
  %18 = load ptr, ptr %9, align 8, !tbaa !1112
  %19 = load ptr, ptr %10, align 8, !tbaa !1112
  %.not7 = icmp eq ptr %18, %19
  br i1 %.not7, label %._crit_edge, label %.lr.ph

._crit_edge:                                      ; preds = %.lr.ph, %1
  ret void

.lr.ph:                                           ; preds = %1, %.lr.ph
  %.sroa.04.08 = phi ptr [ %30, %.lr.ph ], [ %18, %1 ]
  %20 = load ptr, ptr %.sroa.04.08, align 8, !tbaa !1113
  %21 = getelementptr inbounds nuw i8, ptr %20, i64 72
  %22 = getelementptr inbounds nuw i8, ptr %20, i64 80
  %23 = load ptr, ptr %22, align 8, !tbaa !1441
  %24 = load ptr, ptr %21, align 8, !tbaa !1437
  %25 = ptrtoint ptr %23 to i64
  %26 = ptrtoint ptr %24 to i64
  %27 = sub i64 %25, %26
  %28 = lshr exact i64 %27, 2
  %29 = trunc i64 %28 to i32
  tail call void @_ZN7testing8internal12ShuffleRangeIiEEvPNS0_6RandomEiiPSt6vectorIT_SaIS5_EE(ptr noundef nonnull %2, i32 noundef 0, i32 noundef %29, ptr noundef nonnull %21)
  %30 = getelementptr inbounds nuw i8, ptr %.sroa.04.08, i64 8
  %.not = icmp eq ptr %30, %19
  br i1 %.not, label %._crit_edge, label %.lr.ph
}